target datalayout = "e-m:e-p270:32:32-p271:32:32-p272:64:64-i64:64-i128:128-f80:128-n8:16:32:64-S128"
target triple = "x86_64-pc-linux-gnu"

%class.dtObstacleAvoidanceDebugData = type { i32, i32, ptr, ptr, ptr, ptr, ptr, ptr, ptr }
%class.dtObstacleAvoidanceQuery = type <{ %struct.dtObstacleAvoidanceParams, float, float, float, i32, [4 x i8], ptr, i32, i32, ptr, i32, [4 x i8] }>
%struct.dtObstacleAvoidanceParams = type { float, float, float, float, float, float, i8, i8, i8, i8 }

; Function Attrs: mustprogress nounwind uwtable
define linkonce_odr void @_Z7dtVcopyPfPKf(ptr noundef %0, ptr noundef %1) #2 comdat {
  %3 = alloca ptr, align 8
  %4 = alloca ptr, align 8
  store ptr %0, ptr %3, align 8
  store ptr %1, ptr %4, align 8
  %5 = load ptr, ptr %4, align 8
  %6 = getelementptr inbounds float, ptr %5, i64 0
  %7 = load float, ptr %6, align 4
  %8 = load ptr, ptr %3, align 8
  %9 = getelementptr inbounds float, ptr %8, i64 0
  store float %7, ptr %9, align 4
  %10 = load ptr, ptr %4, align 8
  %11 = getelementptr inbounds float, ptr %10, i64 1
  %12 = load float, ptr %11, align 4
  %13 = load ptr, ptr %3, align 8
  %14 = getelementptr inbounds float, ptr %13, i64 1
  store float %12, ptr %14, align 4
  %15 = load ptr, ptr %4, align 8
  %16 = getelementptr inbounds float, ptr %15, i64 2
  %17 = load float, ptr %16, align 4
  %18 = load ptr, ptr %3, align 8
  %19 = getelementptr inbounds float, ptr %18, i64 2
  store float %17, ptr %19, align 4
  ret void
}

; Function Attrs: mustprogress nounwind uwtable
define linkonce_odr noundef float @_Z5dtSqrIfET_S0_(float noundef %0) #2 comdat {
  %2 = alloca float, align 4
  store float %0, ptr %2, align 4
  %3 = load float, ptr %2, align 4
  %4 = load float, ptr %2, align 4
  %5 = fmul float %3, %4
  ret float %5
}

; Function Attrs: mustprogress nounwind uwtable
define void @_ZN28dtObstacleAvoidanceDebugData5resetEv(ptr noundef nonnull align 8 dereferenceable(64) %0) #2 align 2 {
  %2 = alloca ptr, align 8
  store ptr %0, ptr %2, align 8
  %3 = load ptr, ptr %2, align 8
  %4 = getelementptr inbounds %class.dtObstacleAvoidanceDebugData, ptr %3, i32 0, i32 0
  store i32 0, ptr %4, align 8
  ret void
}

; Function Attrs: mustprogress nounwind uwtable
define linkonce_odr void @_Z6dtVsetPffff(ptr noundef %0, float noundef %1, float noundef %2, float noundef %3) #2 comdat {
  %5 = alloca ptr, align 8
  %6 = alloca float, align 4
  %7 = alloca float, align 4
  %8 = alloca float, align 4
  store ptr %0, ptr %5, align 8
  store float %1, ptr %6, align 4
  store float %2, ptr %7, align 4
  store float %3, ptr %8, align 4
  %9 = load float, ptr %6, align 4
  %10 = load ptr, ptr %5, align 8
  %11 = getelementptr inbounds float, ptr %10, i64 0
  store float %9, ptr %11, align 4
  %12 = load float, ptr %7, align 4
  %13 = load ptr, ptr %5, align 8
  %14 = getelementptr inbounds float, ptr %13, i64 1
  store float %12, ptr %14, align 4
  %15 = load float, ptr %8, align 4
  %16 = load ptr, ptr %5, align 8
  %17 = getelementptr inbounds float, ptr %16, i64 2
  store float %15, ptr %17, align 4
  ret void
}

; Function Attrs: mustprogress uwtable
define noundef i32 @_ZN24dtObstacleAvoidanceQuery18sampleVelocityGridEPKfffS1_S1_PfPK25dtObstacleAvoidanceParamsP28dtObstacleAvoidanceDebugData(ptr noundef nonnull align 8 dereferenceable(76) %0, ptr noundef %1, float noundef %2, float noundef %3, ptr noundef %4, ptr noundef %5, ptr noundef %6, ptr noundef %7, ptr noundef %8) #0 align 2 {
  %10 = alloca ptr, align 8
  %11 = alloca ptr, align 8
  %12 = alloca float, align 4
  %13 = alloca float, align 4
  %14 = alloca ptr, align 8
  %15 = alloca ptr, align 8
  %16 = alloca ptr, align 8
  %17 = alloca ptr, align 8
  %18 = alloca ptr, align 8
  %19 = alloca float, align 4
  %20 = alloca float, align 4
  %21 = alloca float, align 4
  %22 = alloca float, align 4
  %23 = alloca float, align 4
  %24 = alloca i32, align 4
  %25 = alloca i32, align 4
  %26 = alloca i32, align 4
  %27 = alloca [3 x float], align 4
  %28 = alloca float, align 4
  store ptr %0, ptr %10, align 8
  store ptr %1, ptr %11, align 8
  store float %2, ptr %12, align 4
  store float %3, ptr %13, align 4
  store ptr %4, ptr %14, align 8
  store ptr %5, ptr %15, align 8
  store ptr %6, ptr %16, align 8
  store ptr %7, ptr %17, align 8
  store ptr %8, ptr %18, align 8
  %29 = load ptr, ptr %10, align 8
  %30 = load ptr, ptr %11, align 8
  %31 = load ptr, ptr %15, align 8
  call void @_ZN24dtObstacleAvoidanceQuery7prepareEPKfS1_(ptr noundef nonnull align 8 dereferenceable(76) %29, ptr noundef %30, ptr noundef %31)
  %32 = getelementptr inbounds %class.dtObstacleAvoidanceQuery, ptr %29, i32 0, i32 0
  %33 = load ptr, ptr %17, align 8
  call void @llvm.memcpy.p0.p0.i64(ptr align 8 %32, ptr align 4 %33, i64 28, i1 false)
  %34 = getelementptr inbounds %class.dtObstacleAvoidanceQuery, ptr %29, i32 0, i32 0
  %35 = getelementptr inbounds %struct.dtObstacleAvoidanceParams, ptr %34, i32 0, i32 5
  %36 = load float, ptr %35, align 4
  %37 = fdiv float 1.000000e+00, %36
  %38 = getelementptr inbounds %class.dtObstacleAvoidanceQuery, ptr %29, i32 0, i32 1
  store float %37, ptr %38, align 4
  %39 = load float, ptr %13, align 4
  %40 = getelementptr inbounds %class.dtObstacleAvoidanceQuery, ptr %29, i32 0, i32 2
  store float %39, ptr %40, align 8
  %41 = load float, ptr %13, align 4
  %42 = fcmp ogt float %41, 0.000000e+00
  br i1 %42, label %43, label %46

43:                                               ; preds = %9
  %44 = load float, ptr %13, align 4
  %45 = fdiv float 1.000000e+00, %44
  br label %47

46:                                               ; preds = %9
  br label %47

47:                                               ; preds = %46, %43
  %48 = phi float [ %45, %43 ], [ 0x47EFFFFFE0000000, %46 ]
  %49 = getelementptr inbounds %class.dtObstacleAvoidanceQuery, ptr %29, i32 0, i32 3
  store float %48, ptr %49, align 4
  %50 = load ptr, ptr %16, align 8
  call void @_Z6dtVsetPffff(ptr noundef %50, float noundef 0.000000e+00, float noundef 0.000000e+00, float noundef 0.000000e+00)
  %51 = load ptr, ptr %18, align 8
  %52 = icmp ne ptr %51, null
  br i1 %52, label %53, label %55

53:                                               ; preds = %47
  %54 = load ptr, ptr %18, align 8
  call void @_ZN28dtObstacleAvoidanceDebugData5resetEv(ptr noundef nonnull align 8 dereferenceable(64) %54)
  br label %55

55:                                               ; preds = %53, %47
  %56 = load ptr, ptr %15, align 8
  %57 = getelementptr inbounds float, ptr %56, i64 0
  %58 = load float, ptr %57, align 4
  %59 = getelementptr inbounds %class.dtObstacleAvoidanceQuery, ptr %29, i32 0, i32 0
  %60 = getelementptr inbounds %struct.dtObstacleAvoidanceParams, ptr %59, i32 0, i32 0
  %61 = load float, ptr %60, align 8
  %62 = fmul float %58, %61
  store float %62, ptr %19, align 4
  %63 = load ptr, ptr %15, align 8
  %64 = getelementptr inbounds float, ptr %63, i64 2
  %65 = load float, ptr %64, align 4
  %66 = getelementptr inbounds %class.dtObstacleAvoidanceQuery, ptr %29, i32 0, i32 0
  %67 = getelementptr inbounds %struct.dtObstacleAvoidanceParams, ptr %66, i32 0, i32 0
  %68 = load float, ptr %67, align 8
  %69 = fmul float %65, %68
  store float %69, ptr %20, align 4
  %70 = load float, ptr %13, align 4
  %71 = fmul float %70, 2.000000e+00
  %72 = getelementptr inbounds %class.dtObstacleAvoidanceQuery, ptr %29, i32 0, i32 0
  %73 = getelementptr inbounds %struct.dtObstacleAvoidanceParams, ptr %72, i32 0, i32 0
  %74 = load float, ptr %73, align 8
  %75 = fsub float 1.000000e+00, %74
  %76 = fmul float %71, %75
  %77 = getelementptr inbounds %class.dtObstacleAvoidanceQuery, ptr %29, i32 0, i32 0
  %78 = getelementptr inbounds %struct.dtObstacleAvoidanceParams, ptr %77, i32 0, i32 6
  %79 = load i8, ptr %78, align 8
  %80 = zext i8 %79 to i32
  %81 = sub nsw i32 %80, 1
  %82 = sitofp i32 %81 to float
  %83 = fdiv float %76, %82
  store float %83, ptr %21, align 4
  %84 = getelementptr inbounds %class.dtObstacleAvoidanceQuery, ptr %29, i32 0, i32 0
  %85 = getelementptr inbounds %struct.dtObstacleAvoidanceParams, ptr %84, i32 0, i32 6
  %86 = load i8, ptr %85, align 8
  %87 = zext i8 %86 to i32
  %88 = sub nsw i32 %87, 1
  %89 = sitofp i32 %88 to float
  %90 = load float, ptr %21, align 4
  %91 = fmul float %89, %90
  %92 = fmul float %91, 5.000000e-01
  store float %92, ptr %22, align 4
  store float 0x47EFFFFFE0000000, ptr %23, align 4
  store i32 0, ptr %24, align 4
  store i32 0, ptr %25, align 4
  br label %93

93:                                               ; preds = %164, %55
  %94 = load i32, ptr %25, align 4
  %95 = getelementptr inbounds %class.dtObstacleAvoidanceQuery, ptr %29, i32 0, i32 0
  %96 = getelementptr inbounds %struct.dtObstacleAvoidanceParams, ptr %95, i32 0, i32 6
  %97 = load i8, ptr %96, align 8
  %98 = zext i8 %97 to i32
  %99 = icmp slt i32 %94, %98
  br i1 %99, label %100, label %167

100:                                              ; preds = %93
  store i32 0, ptr %26, align 4
  br label %101

101:                                              ; preds = %160, %100
  %102 = load i32, ptr %26, align 4
  %103 = getelementptr inbounds %class.dtObstacleAvoidanceQuery, ptr %29, i32 0, i32 0
  %104 = getelementptr inbounds %struct.dtObstacleAvoidanceParams, ptr %103, i32 0, i32 6
  %105 = load i8, ptr %104, align 8
  %106 = zext i8 %105 to i32
  %107 = icmp slt i32 %102, %106
  br i1 %107, label %108, label %163

108:                                              ; preds = %101
  %109 = load float, ptr %19, align 4
  %110 = load i32, ptr %26, align 4
  %111 = sitofp i32 %110 to float
  %112 = load float, ptr %21, align 4
  %113 = call float @llvm.fmuladd.f32(float %111, float %112, float %109)
  %114 = load float, ptr %22, align 4
  %115 = fsub float %113, %114
  %116 = getelementptr inbounds [3 x float], ptr %27, i64 0, i64 0
  store float %115, ptr %116, align 4
  %117 = getelementptr inbounds [3 x float], ptr %27, i64 0, i64 1
  store float 0.000000e+00, ptr %117, align 4
  %118 = load float, ptr %20, align 4
  %119 = load i32, ptr %25, align 4
  %120 = sitofp i32 %119 to float
  %121 = load float, ptr %21, align 4
  %122 = call float @llvm.fmuladd.f32(float %120, float %121, float %118)
  %123 = load float, ptr %22, align 4
  %124 = fsub float %122, %123
  %125 = getelementptr inbounds [3 x float], ptr %27, i64 0, i64 2
  store float %124, ptr %125, align 4
  %126 = getelementptr inbounds [3 x float], ptr %27, i64 0, i64 0
  %127 = load float, ptr %126, align 4
  %128 = call noundef float @_Z5dtSqrIfET_S0_(float noundef %127)
  %129 = getelementptr inbounds [3 x float], ptr %27, i64 0, i64 2
  %130 = load float, ptr %129, align 4
  %131 = call noundef float @_Z5dtSqrIfET_S0_(float noundef %130)
  %132 = fadd float %128, %131
  %133 = load float, ptr %13, align 4
  %134 = load float, ptr %21, align 4
  %135 = fdiv float %134, 2.000000e+00
  %136 = fadd float %133, %135
  %137 = call noundef float @_Z5dtSqrIfET_S0_(float noundef %136)
  %138 = fcmp ogt float %132, %137
  br i1 %138, label %139, label %140

139:                                              ; preds = %108
  br label %160

140:                                              ; preds = %108
  %141 = getelementptr inbounds [3 x float], ptr %27, i64 0, i64 0
  %142 = load float, ptr %21, align 4
  %143 = load ptr, ptr %11, align 8
  %144 = load float, ptr %12, align 4
  %145 = load ptr, ptr %14, align 8
  %146 = load ptr, ptr %15, align 8
  %147 = load float, ptr %23, align 4
  %148 = load ptr, ptr %18, align 8
  %149 = call noundef float @_ZN24dtObstacleAvoidanceQuery13processSampleEPKffS1_fS1_S1_fP28dtObstacleAvoidanceDebugData(ptr noundef nonnull align 8 dereferenceable(76) %29, ptr noundef %141, float noundef %142, ptr noundef %143, float noundef %144, ptr noundef %145, ptr noundef %146, float noundef %147, ptr noundef %148)
  store float %149, ptr %28, align 4
  %150 = load i32, ptr %24, align 4
  %151 = add nsw i32 %150, 1
  store i32 %151, ptr %24, align 4
  %152 = load float, ptr %28, align 4
  %153 = load float, ptr %23, align 4
  %154 = fcmp olt float %152, %153
  br i1 %154, label %155, label %159

155:                                              ; preds = %140
  %156 = load float, ptr %28, align 4
  store float %156, ptr %23, align 4
  %157 = load ptr, ptr %16, align 8
  %158 = getelementptr inbounds [3 x float], ptr %27, i64 0, i64 0
  call void @_Z7dtVcopyPfPKf(ptr noundef %157, ptr noundef %158)
  br label %159

159:                                              ; preds = %155, %140
  br label %160

160:                                              ; preds = %159, %139
  %161 = load i32, ptr %26, align 4
  %162 = add nsw i32 %161, 1
  store i32 %162, ptr %26, align 4
  br label %101, !llvm.loop !11

163:                                              ; preds = %101
  br label %164

164:                                              ; preds = %163
  %165 = load i32, ptr %25, align 4
  %166 = add nsw i32 %165, 1
  store i32 %166, ptr %25, align 4
  br label %93, !llvm.loop !12

167:                                              ; preds = %93
  %168 = load i32, ptr %24, align 4
  ret i32 %168
}