; Function Attrs: mustprogress uwtable
define noundef i32 @_ZN24dtObstacleAvoidanceQuery18sampleVelocityGridEPKfffS1_S1_PfPK25dtObstacleAvoidanceParamsP28dtObstacleAvoidanceDebugData(ptr noundef nonnull align 8 captures(none) dereferenceable(76) %0, ptr noundef %1, float noundef %2, float noundef %3, ptr noundef readonly captures(none) %4, ptr noundef readonly captures(none) %5, ptr noundef writeonly captures(none) initializes((0, 12)) %6, ptr noundef readonly captures(none) %7, ptr noundef %8) local_unnamed_addr #0 align 2 {
  %10 = alloca [3 x float], align 4
  tail call void @_ZN24dtObstacleAvoidanceQuery7prepareEPKfS1_(ptr noundef nonnull align 8 dereferenceable(76) %0, ptr noundef %1, ptr noundef %5)
  tail call void @llvm.memcpy.p0.p0.i64(ptr noundef nonnull align 8 dereferenceable(28) %0, ptr noundef nonnull align 4 dereferenceable(28) %7, i64 28, i1 false)
  %11 = getelementptr inbounds nuw i8, ptr %0, i64 20
  %12 = load float, ptr %11, align 4
  %13 = fdiv float 1.000000e+00, %12
  %14 = getelementptr inbounds nuw i8, ptr %0, i64 28
  store float %13, ptr %14, align 4
  %15 = getelementptr inbounds nuw i8, ptr %0, i64 32
  store float %3, ptr %15, align 8
  %16 = fcmp ogt float %3, 0.000000e+00
  %17 = fdiv float 1.000000e+00, %3
  %18 = select i1 %16, float %17, float 0x47EFFFFFE0000000
  %19 = getelementptr inbounds nuw i8, ptr %0, i64 36
  store float %18, ptr %19, align 4
  store float 0.000000e+00, ptr %6, align 4
  %20 = getelementptr inbounds nuw i8, ptr %6, i64 4
  store float 0.000000e+00, ptr %20, align 4
  %21 = getelementptr inbounds nuw i8, ptr %6, i64 8
  store float 0.000000e+00, ptr %21, align 4
  %.not = icmp eq ptr %8, null
  br i1 %.not, label %23, label %22

22:                                               ; preds = %9
  store i32 0, ptr %8, align 8
  br label %23

23:                                               ; preds = %22, %9
  %24 = load float, ptr %5, align 4
  %25 = load float, ptr %0, align 8
  %26 = fmul float %24, %25
  %27 = getelementptr inbounds nuw i8, ptr %5, i64 8
  %28 = load float, ptr %27, align 4
  %29 = fmul float %25, %28
  %30 = fmul float %3, 2.000000e+00
  %31 = fsub float 1.000000e+00, %25
  %32 = fmul float %30, %31
  %33 = getelementptr inbounds nuw i8, ptr %0, i64 24
  %34 = load i8, ptr %33, align 8
  %35 = zext i8 %34 to i32
  %36 = add nsw i32 %35, -1
  %37 = sitofp i32 %36 to float
  %38 = fdiv float %32, %37
  %39 = fmul float %38, %37
  %40 = fmul float %39, 5.000000e-01
  %.not56 = icmp eq i8 %34, 0
  br i1 %.not56, label %._crit_edge54, label %.preheader.lr.ph

.preheader.lr.ph:                                 ; preds = %23
  %41 = getelementptr inbounds nuw i8, ptr %10, i64 4
  %42 = getelementptr inbounds nuw i8, ptr %10, i64 8
  %43 = fmul float %38, 5.000000e-01
  %44 = fadd float %3, %43
  %45 = fmul float %44, %44
  br label %.preheader

.preheader:                                       ; preds = %.preheader.lr.ph, %._crit_edge
  %46 = phi i8 [ 1, %.preheader.lr.ph ], [ %68, %._crit_edge ]
  %.053 = phi float [ 0x47EFFFFFE0000000, %.preheader.lr.ph ], [ %.1.lcssa, %._crit_edge ]
  %.04152 = phi i32 [ 0, %.preheader.lr.ph ], [ %69, %._crit_edge ]
  %.04251 = phi i32 [ 0, %.preheader.lr.ph ], [ %.143.lcssa, %._crit_edge ]
  %.not57 = icmp eq i8 %46, 0
  br i1 %.not57, label %._crit_edge, label %.lr.ph

.lr.ph:                                           ; preds = %.preheader
  %47 = uitofp nneg i32 %.04152 to float
  %48 = tail call float @llvm.fmuladd.f32(float %47, float %38, float %29)
  %49 = fsub float %48, %40
  %50 = fmul float %49, %49
  br label %51

51:                                               ; preds = %.lr.ph, %63
  %.149 = phi float [ %.053, %.lr.ph ], [ %.2, %63 ]
  %.04048 = phi i32 [ 0, %.lr.ph ], [ %64, %63 ]
  %.14347 = phi i32 [ %.04251, %.lr.ph ], [ %.244, %63 ]
  %52 = uitofp nneg i32 %.04048 to float
  %53 = tail call float @llvm.fmuladd.f32(float %52, float %38, float %26)
  %54 = fsub float %53, %40
  store float %54, ptr %10, align 4
  store float 0.000000e+00, ptr %41, align 4
  store float %49, ptr %42, align 4
  %55 = fmul float %54, %54
  %56 = fadd float %50, %55
  %57 = fcmp ogt float %56, %45
  br i1 %57, label %63, label %58

58:                                               ; preds = %51
  %59 = call noundef float @_ZN24dtObstacleAvoidanceQuery13processSampleEPKffS1_fS1_S1_fP28dtObstacleAvoidanceDebugData(ptr noundef nonnull align 8 dereferenceable(76) %0, ptr noundef nonnull %10, float noundef %38, ptr noundef %1, float noundef %2, ptr noundef %4, ptr noundef nonnull %5, float noundef %.149, ptr noundef %8)
  %60 = add nsw i32 %.14347, 1
  %61 = fcmp olt float %59, %.149
  br i1 %61, label %62, label %63

62:                                               ; preds = %58
  store float %54, ptr %6, align 4
  store float 0.000000e+00, ptr %20, align 4
  store float %49, ptr %21, align 4
  br label %63

63:                                               ; preds = %58, %62, %51
  %.244 = phi i32 [ %.14347, %51 ], [ %60, %62 ], [ %60, %58 ]
  %.2 = phi float [ %.149, %51 ], [ %59, %62 ], [ %.149, %58 ]
  %64 = add nuw nsw i32 %.04048, 1
  %65 = load i8, ptr %33, align 8
  %66 = zext i8 %65 to i32
  %67 = icmp samesign ult i32 %64, %66
  br i1 %67, label %51, label %._crit_edge, !llvm.loop !11

._crit_edge:                                      ; preds = %63, %.preheader
  %68 = phi i8 [ 0, %.preheader ], [ %65, %63 ]
  %.143.lcssa = phi i32 [ %.04251, %.preheader ], [ %.244, %63 ]
  %.1.lcssa = phi float [ %.053, %.preheader ], [ %.2, %63 ]
  %69 = add nuw nsw i32 %.04152, 1
  %70 = zext i8 %68 to i32
  %71 = icmp samesign ult i32 %69, %70
  br i1 %71, label %.preheader, label %._crit_edge54, !llvm.loop !12

._crit_edge54:                                    ; preds = %._crit_edge, %23
  %.042.lcssa = phi i32 [ 0, %23 ], [ %.143.lcssa, %._crit_edge ]
  ret i32 %.042.lcssa
}